target datalayout = "e-m:e-p270:32:32-p271:32:32-p272:64:64-i64:64-i128:128-f80:128-n8:16:32:64-S128"
target triple = "x86_64-pc-linux-gnu"

%struct.H5C_class_t = type { i32, ptr, i32, i32, ptr, ptr, ptr, ptr, ptr, ptr, ptr, ptr, ptr, ptr }
%struct.H5B2_internal_t = type { %struct.H5C_cache_entry_t, ptr, ptr, ptr, i16, i16, ptr, ptr, i64 }
%struct.H5C_cache_entry_t = type { ptr, i64, i64, ptr, i8, ptr, i8, i8, i8, i8, i32, i8, i8, i8, i8, i8, i32, ptr, i32, i32, i32, i32, i32, i8, i8, ptr, ptr, ptr, ptr, ptr, ptr, i8, i32, i8, i64, ptr, i64, i64, i32, i8, i32, i32, i8, ptr, ptr, ptr }
%struct.H5B2_hdr_t = type { %struct.H5C_cache_entry_t, %struct.H5B2_node_ptr_t, i8, i8, i32, i32, i16, i8, ptr, i64, i64, i64, i64, i8, i8, i8, ptr, ptr, ptr, ptr, ptr, ptr, ptr, i8, ptr, ptr, i64, ptr, ptr }
%struct.H5B2_node_ptr_t = type { i64, i16, i64 }

@H5B2_init_g = external global i8, align 1
@H5_libterm_g = external global i8, align 1
@.str = private unnamed_addr constant [101 x i8] c"generated/home/dtcxzyw/WorkSpace/Projects/compilers/llvm-opt-benchmark/bench/hdf5/hdf5/src/H5B2int.c\00", align 1
@H5E_BTREE_g = external global i64, align 8
@H5AC_BT2_INT = external constant [1 x %struct.H5C_class_t], align 16
@H5E_CANTPROTECT_g = external global i64, align 8
@.str.3 = private unnamed_addr constant [39 x i8] c"unable to protect B-tree internal node\00", align 1
@H5E_CANTUNPROTECT_g = external global i64, align 8
@.str.21 = private unnamed_addr constant [30 x i8] c"unable to release B-tree node\00", align 1
@H5E_CANTLIST_g = external global i64, align 8
@.str.22 = private unnamed_addr constant [22 x i8] c"node iteration failed\00", align 1
@__func__.H5B2__node_size = private unnamed_addr constant [16 x i8] c"H5B2__node_size\00", align 1

; Function Attrs: nounwind uwtable
define i32 @H5B2__node_size(ptr noundef %0, i16 noundef zeroext %1, ptr noundef %2, ptr noundef %3, ptr noundef %4) #0 {
  %6 = alloca i32, align 4
  %7 = alloca ptr, align 8
  %8 = alloca i16, align 2
  %9 = alloca ptr, align 8
  %10 = alloca ptr, align 8
  %11 = alloca ptr, align 8
  %12 = alloca ptr, align 8
  %13 = alloca i32, align 4
  %14 = alloca i8, align 1
  %15 = alloca i32, align 4
  %16 = alloca i32, align 4
  store ptr %0, ptr %7, align 8, !tbaa !27
  store i16 %1, ptr %8, align 2, !tbaa !29
  store ptr %2, ptr %9, align 8, !tbaa !14
  store ptr %3, ptr %10, align 8, !tbaa !14
  store ptr %4, ptr %11, align 8, !tbaa !10
  call void @llvm.lifetime.start.p0(i64 8, ptr %12) #6
  store ptr null, ptr %12, align 8, !tbaa !31
  call void @llvm.lifetime.start.p0(i64 4, ptr %13) #6
  store i32 0, ptr %13, align 4, !tbaa !8
  call void @llvm.lifetime.start.p0(i64 1, ptr %14) #6
  store i8 0, ptr %14, align 1, !tbaa !17
  %17 = load i8, ptr @H5B2_init_g, align 1, !tbaa !17, !range !19, !noundef !20
  %18 = trunc i8 %17 to i1
  br i1 %18, label %23, label %19

19:                                               ; preds = %5
  %20 = load i8, ptr @H5_libterm_g, align 1, !tbaa !17, !range !19, !noundef !20
  %21 = trunc i8 %20 to i1
  %22 = xor i1 %21, true
  br label %23

23:                                               ; preds = %19, %5
  %24 = phi i1 [ true, %5 ], [ %22, %19 ]
  %25 = xor i1 %24, true
  %26 = xor i1 %25, true
  %27 = zext i1 %26 to i32
  %28 = sext i32 %27 to i64
  %29 = call i64 @llvm.expect.i64(i64 %28, i64 1)
  %30 = icmp ne i64 %29, 0
  br i1 %30, label %31, label %166

31:                                               ; preds = %23
  %32 = load ptr, ptr %7, align 8, !tbaa !27
  %33 = load ptr, ptr %10, align 8, !tbaa !14
  %34 = load ptr, ptr %9, align 8, !tbaa !14
  %35 = load i16, ptr %8, align 2, !tbaa !29
  %36 = call ptr @H5B2__protect_internal(ptr noundef %32, ptr noundef %33, ptr noundef %34, i16 noundef zeroext %35, i1 noundef zeroext false, i32 noundef 128)
  store ptr %36, ptr %12, align 8, !tbaa !31
  %37 = icmp eq ptr null, %36
  br i1 %37, label %38, label %57

38:                                               ; preds = %31
  br label %39

39:                                               ; preds = %38
  br label %40

40:                                               ; preds = %39
  br label %41

41:                                               ; preds = %40
  %42 = load i64, ptr @H5E_BTREE_g, align 8, !tbaa !24
  %43 = load i64, ptr @H5E_CANTPROTECT_g, align 8, !tbaa !24
  %44 = call i32 (ptr, ptr, i32, i64, i64, ptr, ...) @H5E_printf_stack(ptr noundef @.str, ptr noundef @__func__.H5B2__node_size, i32 noundef 1811, i64 noundef %42, i64 noundef %43, ptr noundef @.str.3)
  br label %45

45:                                               ; preds = %41
  br label %46

46:                                               ; preds = %45
  store i8 1, ptr %14, align 1, !tbaa !17
  %47 = load i8, ptr %14, align 1, !tbaa !17, !range !19, !noundef !20
  %48 = trunc i8 %47 to i1
  %49 = zext i1 %48 to i8
  store i8 %49, ptr %14, align 1, !tbaa !17
  br label %50

50:                                               ; preds = %46
  br label %51

51:                                               ; preds = %50
  br label %52

52:                                               ; preds = %51
  store i32 -1, ptr %13, align 4, !tbaa !8
  br label %136

53:                                               ; No predecessors!
  br label %54

54:                                               ; preds = %53
  br label %55

55:                                               ; preds = %54
  br label %56

56:                                               ; preds = %55
  br label %57

57:                                               ; preds = %56, %31
  %58 = load i16, ptr %8, align 2, !tbaa !29
  %59 = zext i16 %58 to i32
  %60 = icmp sgt i32 %59, 1
  br i1 %60, label %61, label %113

61:                                               ; preds = %57
  call void @llvm.lifetime.start.p0(i64 4, ptr %15) #6
  store i32 0, ptr %15, align 4, !tbaa !8
  br label %62

62:                                               ; preds = %106, %61
  %63 = load i32, ptr %15, align 4, !tbaa !8
  %64 = load ptr, ptr %12, align 8, !tbaa !31
  %65 = getelementptr inbounds nuw %struct.H5B2_internal_t, ptr %64, i32 0, i32 4
  %66 = load i16, ptr %65, align 8, !tbaa !33
  %67 = zext i16 %66 to i32
  %68 = add i32 %67, 1
  %69 = icmp ult i32 %63, %68
  br i1 %69, label %70, label %109

70:                                               ; preds = %62
  %71 = load ptr, ptr %7, align 8, !tbaa !27
  %72 = load i16, ptr %8, align 2, !tbaa !29
  %73 = zext i16 %72 to i32
  %74 = sub nsw i32 %73, 1
  %75 = trunc i32 %74 to i16
  %76 = load ptr, ptr %12, align 8, !tbaa !31
  %77 = getelementptr inbounds nuw %struct.H5B2_internal_t, ptr %76, i32 0, i32 3
  %78 = load ptr, ptr %77, align 8, !tbaa !49
  %79 = load i32, ptr %15, align 4, !tbaa !8
  %80 = zext i32 %79 to i64
  %81 = getelementptr inbounds nuw %struct.H5B2_node_ptr_t, ptr %78, i64 %80
  %82 = load ptr, ptr %12, align 8, !tbaa !31
  %83 = load ptr, ptr %11, align 8, !tbaa !10
  %84 = call i32 @H5B2__node_size(ptr noundef %71, i16 noundef zeroext %75, ptr noundef %81, ptr noundef %82, ptr noundef %83)
  %85 = icmp slt i32 %84, 0
  br i1 %85, label %86, label %105

86:                                               ; preds = %70
  br label %87

87:                                               ; preds = %86
  br label %88

88:                                               ; preds = %87
  br label %89

89:                                               ; preds = %88
  %90 = load i64, ptr @H5E_BTREE_g, align 8, !tbaa !24
  %91 = load i64, ptr @H5E_CANTLIST_g, align 8, !tbaa !24
  %92 = call i32 (ptr, ptr, i32, i64, i64, ptr, ...) @H5E_printf_stack(ptr noundef @.str, ptr noundef @__func__.H5B2__node_size, i32 noundef 1821, i64 noundef %90, i64 noundef %91, ptr noundef @.str.22)
  br label %93

93:                                               ; preds = %89
  br label %94

94:                                               ; preds = %93
  store i8 1, ptr %14, align 1, !tbaa !17
  %95 = load i8, ptr %14, align 1, !tbaa !17, !range !19, !noundef !20
  %96 = trunc i8 %95 to i1
  %97 = zext i1 %96 to i8
  store i8 %97, ptr %14, align 1, !tbaa !17
  br label %98

98:                                               ; preds = %94
  br label %99

99:                                               ; preds = %98
  br label %100

100:                                              ; preds = %99
  store i32 -1, ptr %13, align 4, !tbaa !8
  store i32 10, ptr %16, align 4
  br label %110

101:                                              ; No predecessors!
  br label %102

102:                                              ; preds = %101
  br label %103

103:                                              ; preds = %102
  br label %104

104:                                              ; preds = %103
  br label %105

105:                                              ; preds = %104, %70
  br label %106

106:                                              ; preds = %105
  %107 = load i32, ptr %15, align 4, !tbaa !8
  %108 = add i32 %107, 1
  store i32 %108, ptr %15, align 4, !tbaa !8
  br label %62, !llvm.loop !95

109:                                              ; preds = %62
  store i32 0, ptr %16, align 4
  br label %110

110:                                              ; preds = %100, %109
  call void @llvm.lifetime.end.p0(i64 4, ptr %15) #6
  %111 = load i32, ptr %16, align 4
  switch i32 %111, label %168 [
    i32 0, label %112
    i32 10, label %136
  ]

112:                                              ; preds = %110
  br label %128

113:                                              ; preds = %57
  %114 = load ptr, ptr %12, align 8, !tbaa !31
  %115 = getelementptr inbounds nuw %struct.H5B2_internal_t, ptr %114, i32 0, i32 4
  %116 = load i16, ptr %115, align 8, !tbaa !33
  %117 = zext i16 %116 to i32
  %118 = add nsw i32 %117, 1
  %119 = sext i32 %118 to i64
  %120 = load ptr, ptr %7, align 8, !tbaa !27
  %121 = getelementptr inbounds nuw %struct.H5B2_hdr_t, ptr %120, i32 0, i32 4
  %122 = load i32, ptr %121, align 4, !tbaa !67
  %123 = zext i32 %122 to i64
  %124 = mul i64 %119, %123
  %125 = load ptr, ptr %11, align 8, !tbaa !10
  %126 = load i64, ptr %125, align 8, !tbaa !24
  %127 = add i64 %126, %124
  store i64 %127, ptr %125, align 8, !tbaa !24
  br label %128

128:                                              ; preds = %113, %112
  %129 = load ptr, ptr %7, align 8, !tbaa !27
  %130 = getelementptr inbounds nuw %struct.H5B2_hdr_t, ptr %129, i32 0, i32 4
  %131 = load i32, ptr %130, align 4, !tbaa !67
  %132 = zext i32 %131 to i64
  %133 = load ptr, ptr %11, align 8, !tbaa !10
  %134 = load i64, ptr %133, align 8, !tbaa !24
  %135 = add i64 %134, %132
  store i64 %135, ptr %133, align 8, !tbaa !24
  br label %136

136:                                              ; preds = %128, %110, %52
  %137 = load ptr, ptr %12, align 8, !tbaa !31
  %138 = icmp ne ptr %137, null
  br i1 %138, label %139, label %165

139:                                              ; preds = %136
  %140 = load ptr, ptr %7, align 8, !tbaa !27
  %141 = getelementptr inbounds nuw %struct.H5B2_hdr_t, ptr %140, i32 0, i32 8
  %142 = load ptr, ptr %141, align 8, !tbaa !63
  %143 = load ptr, ptr %9, align 8, !tbaa !14
  %144 = getelementptr inbounds nuw %struct.H5B2_node_ptr_t, ptr %143, i32 0, i32 0
  %145 = load i64, ptr %144, align 8, !tbaa !54
  %146 = load ptr, ptr %12, align 8, !tbaa !31
  %147 = call i32 @H5AC_unprotect(ptr noundef %142, ptr noundef @H5AC_BT2_INT, i64 noundef %145, ptr noundef %146, i32 noundef 0)
  %148 = icmp slt i32 %147, 0
  br i1 %148, label %149, label %165

149:                                              ; preds = %139
  br label %150

150:                                              ; preds = %149
  br label %151

151:                                              ; preds = %150
  br label %152

152:                                              ; preds = %151
  %153 = load i64, ptr @H5E_BTREE_g, align 8, !tbaa !24
  %154 = load i64, ptr @H5E_CANTUNPROTECT_g, align 8, !tbaa !24
  %155 = call i32 (ptr, ptr, i32, i64, i64, ptr, ...) @H5E_printf_stack(ptr noundef @.str, ptr noundef @__func__.H5B2__node_size, i32 noundef 1831, i64 noundef %153, i64 noundef %154, ptr noundef @.str.21)
  br label %156

156:                                              ; preds = %152
  br label %157

157:                                              ; preds = %156
  store i8 1, ptr %14, align 1, !tbaa !17
  %158 = load i8, ptr %14, align 1, !tbaa !17, !range !19, !noundef !20
  %159 = trunc i8 %158 to i1
  %160 = zext i1 %159 to i8
  store i8 %160, ptr %14, align 1, !tbaa !17
  br label %161

161:                                              ; preds = %157
  br label %162

162:                                              ; preds = %161
  store i32 -1, ptr %13, align 4, !tbaa !8
  br label %163

163:                                              ; preds = %162
  br label %164

164:                                              ; preds = %163
  br label %165

165:                                              ; preds = %164, %139, %136
  br label %166

166:                                              ; preds = %165, %23
  %167 = load i32, ptr %13, align 4, !tbaa !8
  store i32 %167, ptr %6, align 4
  store i32 1, ptr %16, align 4
  br label %168

168:                                              ; preds = %166, %110
  call void @llvm.lifetime.end.p0(i64 1, ptr %14) #6
  call void @llvm.lifetime.end.p0(i64 4, ptr %13) #6
  call void @llvm.lifetime.end.p0(i64 8, ptr %12) #6
  %169 = load i32, ptr %6, align 4
  ret i32 %169
}