; Function Attrs: nounwind uwtable
define range(i32 -1, 1) i32 @H5B2__node_size(ptr noundef %0, i16 noundef zeroext %1, ptr noundef %2, ptr noundef %3, ptr noundef captures(none) %4) local_unnamed_addr #0 {
  %6 = load i8, ptr @H5B2_init_g, align 1, !tbaa !3, !range !7, !noundef !8
  %7 = trunc nuw i8 %6 to i1
  %8 = load i8, ptr @H5_libterm_g, align 1, !range !7
  %9 = trunc nuw i8 %8 to i1
  %10 = xor i1 %9, true
  %11 = select i1 %7, i1 true, i1 %10
  br i1 %11, label %12, label %58, !prof !9

12:                                               ; preds = %5
  %13 = tail call ptr @H5B2__protect_internal(ptr noundef %0, ptr noundef %3, ptr noundef %2, i16 noundef zeroext %1, i1 noundef zeroext false, i32 noundef 128) #5
  %14 = icmp eq ptr %13, null
  br i1 %14, label %44, label %15

15:                                               ; preds = %12
  %16 = icmp ugt i16 %1, 1
  %17 = getelementptr inbounds nuw i8, ptr %13, i64 272
  br i1 %16, label %.preheader, label %32

.preheader:                                       ; preds = %15
  %18 = add i16 %1, -1
  %19 = getelementptr inbounds nuw i8, ptr %13, i64 264
  br label %23

20:                                               ; preds = %23
  %indvars.iv.next = add nuw nsw i64 %indvars.iv, 1
  %21 = load i16, ptr %17, align 8, !tbaa !20
  %22 = zext i16 %21 to i64
  %.not.not = icmp samesign ult i64 %indvars.iv, %22
  br i1 %.not.not, label %23, label %.thread.loopexit, !llvm.loop !85

23:                                               ; preds = %.preheader, %20
  %indvars.iv = phi i64 [ 0, %.preheader ], [ %indvars.iv.next, %20 ]
  %24 = load ptr, ptr %19, align 8, !tbaa !40
  %25 = getelementptr inbounds nuw %struct.H5B2_node_ptr_t, ptr %24, i64 %indvars.iv
  %26 = tail call i32 @H5B2__node_size(ptr noundef %0, i16 noundef zeroext %18, ptr noundef %25, ptr noundef nonnull %13, ptr noundef %4)
  %27 = icmp slt i32 %26, 0
  br i1 %27, label %28, label %20

28:                                               ; preds = %23
  %29 = load i64, ptr @H5E_BTREE_g, align 8, !tbaa !17
  %30 = load i64, ptr @H5E_CANTLIST_g, align 8, !tbaa !17
  %31 = tail call i32 (ptr, ptr, i32, i64, i64, ptr, ...) @H5E_printf_stack(ptr noundef nonnull @.str, ptr noundef nonnull @__func__.H5B2__node_size, i32 noundef 1821, i64 noundef %29, i64 noundef %30, ptr noundef nonnull @.str.22) #5
  br label %48

32:                                               ; preds = %15
  %33 = load i16, ptr %17, align 8, !tbaa !20
  %34 = zext i16 %33 to i64
  %35 = add nuw nsw i64 %34, 1
  %36 = getelementptr inbounds nuw i8, ptr %0, i64 276
  %37 = load i32, ptr %36, align 4, !tbaa !54
  %38 = zext i32 %37 to i64
  %39 = mul nuw nsw i64 %35, %38
  %40 = load i64, ptr %4, align 8, !tbaa !17
  %41 = add i64 %39, %40
  br label %.thread

.thread.loopexit:                                 ; preds = %20
  %.phi.trans.insert = getelementptr inbounds nuw i8, ptr %0, i64 276
  %.pre = load i32, ptr %.phi.trans.insert, align 4, !tbaa !54
  %.pre42 = load i64, ptr %4, align 8, !tbaa !17
  %.pre43 = zext i32 %.pre to i64
  br label %.thread

.thread:                                          ; preds = %.thread.loopexit, %32
  %.pre-phi = phi i64 [ %.pre43, %.thread.loopexit ], [ %38, %32 ]
  %42 = phi i64 [ %.pre42, %.thread.loopexit ], [ %41, %32 ]
  %43 = add i64 %42, %.pre-phi
  store i64 %43, ptr %4, align 8, !tbaa !17
  br label %48

44:                                               ; preds = %12
  %45 = load i64, ptr @H5E_BTREE_g, align 8, !tbaa !17
  %46 = load i64, ptr @H5E_CANTPROTECT_g, align 8, !tbaa !17
  %47 = tail call i32 (ptr, ptr, i32, i64, i64, ptr, ...) @H5E_printf_stack(ptr noundef nonnull @.str, ptr noundef nonnull @__func__.H5B2__node_size, i32 noundef 1811, i64 noundef %45, i64 noundef %46, ptr noundef nonnull @.str.3) #5
  br label %58

48:                                               ; preds = %28, %.thread
  %.1.ph = phi i32 [ 0, %.thread ], [ -1, %28 ]
  %49 = getelementptr inbounds nuw i8, ptr %0, i64 288
  %50 = load ptr, ptr %49, align 8, !tbaa !51
  %51 = load i64, ptr %2, align 8, !tbaa !44
  %52 = tail call i32 @H5AC_unprotect(ptr noundef %50, ptr noundef nonnull @H5AC_BT2_INT, i64 noundef %51, ptr noundef nonnull %13, i32 noundef 0) #5
  %53 = icmp slt i32 %52, 0
  br i1 %53, label %54, label %58

54:                                               ; preds = %48
  %55 = load i64, ptr @H5E_BTREE_g, align 8, !tbaa !17
  %56 = load i64, ptr @H5E_CANTUNPROTECT_g, align 8, !tbaa !17
  %57 = tail call i32 (ptr, ptr, i32, i64, i64, ptr, ...) @H5E_printf_stack(ptr noundef nonnull @.str, ptr noundef nonnull @__func__.H5B2__node_size, i32 noundef 1831, i64 noundef %55, i64 noundef %56, ptr noundef nonnull @.str.21) #5
  br label %58

58:                                               ; preds = %44, %5, %54, %48
  %.030 = phi i32 [ -1, %54 ], [ %.1.ph, %48 ], [ -1, %44 ], [ 0, %5 ]
  ret i32 %.030
}